GAS LISTING /tmp/ccQVnsSl.s 			page 1


   1               		.file	"boot.c"
   2               	__SP_H__ = 0x3e
   3               	__SP_L__ = 0x3d
   4               	__SREG__ = 0x3f
   5               	__tmp_reg__ = 0
   6               	__zero_reg__ = 1
   7               		.text
   8               	.Ltext0:
   9               		.cfi_sections	.debug_frame
  10               		.section	.init9,"ax",@progbits
  11               	.global	__jmain
  12               		.type	__jmain, @function
  13               	__jmain:
  14               	.LFB2:
  15               		.file 1 "boot.c"
   1:boot.c        **** #include "boot.h"
   2:boot.c        **** 
   3:boot.c        **** //main{{{
   4:boot.c        **** void main (void){
   5:boot.c        **** //Variable definition{{{
   6:boot.c        ****     uint8_t Buffer[BUFFSIZE]={SIGNATURE_0, SIGNATURE_1, SIGNATURE_2};
   7:boot.c        ****     uint8_t Tcounter = OVFLW;
   8:boot.c        ****     uint8_t opt;
   9:boot.c        ****     uint16_t crc;
  10:boot.c        ****     volatile fncptr runapp = (fncptr)0x0000;
  11:boot.c        ****     uint16_t k;
  12:boot.c        **** #if (MAXPAGE > 255)
  13:boot.c        ****     uint16_t j;
  14:boot.c        **** #else
  15:boot.c        ****     uint8_t j;
  16:boot.c        **** #endif
  17:boot.c        **** #if (SPM_PAGESIZE > 255)
  18:boot.c        ****     uint16_t i;
  19:boot.c        **** #else
  20:boot.c        ****     uint8_t i;
  21:boot.c        **** #endif
  22:boot.c        **** //}}}
  23:boot.c        **** 
  24:boot.c        **** //Registers and device initialization{{{
  25:boot.c        ****     UBRRH = UBRRH_VALUE;
  26:boot.c        ****     UBRRL = UBRRL_VALUE;
  27:boot.c        ****     UART_ENA();
  28:boot.c        ****     send_block(Buffer, 3); //Send signature bytes
  29:boot.c        ****     //Send bootloader version info (not enough space)
  30:boot.c        ****     /*for(i=7;i>0;i--)*/
  31:boot.c        ****         /*uart_tx(pgm_read_byte(BootloaderVersion[7-i]));*/
  32:boot.c        ****     TIM_ENA();
  33:boot.c        **** //}}}
  34:boot.c        **** 
  35:boot.c        **** //Bootloader handshake{{{
  36:boot.c        ****     while(Tcounter){ //Wait 1 sec for reply (ACK) of PC
  37:boot.c        ****         if(TIM_OVR()){
  38:boot.c        ****             TFLAGRST();
  39:boot.c        ****             Tcounter--;
  40:boot.c        ****         }
  41:boot.c        ****         if(DATA_RX() && (UDR == ACK)){
  42:boot.c        ****             break;
GAS LISTING /tmp/ccQVnsSl.s 			page 2


  43:boot.c        ****         }
  44:boot.c        ****     }
  45:boot.c        ****     TIM_DIS(); //Timer Disable
  46:boot.c        ****     TFLAGRST(); //Timer flag reset (to default state)
  47:boot.c        **** //}}}
  48:boot.c        **** 
  49:boot.c        ****     while(Tcounter){
  50:boot.c        ****         opt=uart_rx();
  51:boot.c        ****         //Flash and EEPROM read routine{{{
  52:boot.c        ****         if((opt==F_RD) || (opt==E_RD)){
  53:boot.c        ****             if(receive_block(Buffer, SHORTBUFS)){
  54:boot.c        ****                 if(opt==F_RD)
  55:boot.c        ****                     flash_buff_load(Buffer, PAGBT);
  56:boot.c        ****                 else{
  57:boot.c        ****                      eeprom_read_block(Buffer, (const void*)PAGWD, \
  58:boot.c        ****                              SPM_PAGESIZE);
  59:boot.c        ****                      eeprom_busy_wait();
  60:boot.c        ****                 }
  61:boot.c        ****                 crc=crc16_calc(INITVAL, MASKBUFF, SPM_PAGESIZE, Buffer);
  62:boot.c        ****                 Buffer[SPM_PAGESIZE]=((uint8_t)(crc>>8));
  63:boot.c        ****                 Buffer[SPM_PAGESIZE+1]=((uint8_t)crc);
  64:boot.c        ****                 send_block(Buffer, (BUFFSIZE-PAGSIZE));
  65:boot.c        ****             }
  66:boot.c        ****         }
  67:boot.c        ****         //}}}
  68:boot.c        ****         //Flash write routine{{{
  69:boot.c        ****         else if(opt==F_WR){
  70:boot.c        ****             if(receive_block(Buffer, BUFFSIZE)){
  71:boot.c        ****                 boot_page_erase(PAGWD);
  72:boot.c        ****                 boot_spm_busy_wait();
  73:boot.c        ****                 for(i=SPM_PAGESIZE;i>0;i-=2)
  74:boot.c        ****                     boot_page_fill(SPM_PAGESIZE-i, \
  75:boot.c        ****                             ((Buffer[SPM_PAGESIZE-i+2]<<8) | \
  76:boot.c        ****                              Buffer[SPM_PAGESIZE-i+1]));
  77:boot.c        ****                 boot_page_write(PAGWD);
  78:boot.c        ****                 boot_spm_busy_wait();
  79:boot.c        ****                 uart_tx(ACK);
  80:boot.c        ****             }
  81:boot.c        ****         }
  82:boot.c        ****         //}}}
  83:boot.c        ****         //Flash and EEPROM verification routine{{{
  84:boot.c        ****         else if((opt==F_VR) || (opt==E_VR)){
  85:boot.c        ****             crc=INITVAL;
  86:boot.c        ****             if(receive_block(Buffer, SHORTBUFS)){//##
  87:boot.c        ****                 i = PAGBT;
  88:boot.c        ****                 for(j=i;j>0;j--){
  89:boot.c        ****                     if(opt==F_VR)
  90:boot.c        ****                         flash_buff_load(Buffer, i-j);
  91:boot.c        ****                     else{
  92:boot.c        ****                          eeprom_read_block(Buffer, \
  93:boot.c        ****                                  (const void*)((i-j)<<SPM_LOG2), SPM_PAGESIZE);
  94:boot.c        ****                          eeprom_busy_wait();
  95:boot.c        ****                     }
  96:boot.c        ****                     crc=crc16_calc(crc, MASKFLASH, SPM_PAGESIZE, Buffer);
  97:boot.c        ****                 }
  98:boot.c        ****             }
  99:boot.c        ****             uart_tx((uint8_t)(crc>>8));
GAS LISTING /tmp/ccQVnsSl.s 			page 3


 100:boot.c        ****             uart_tx((uint8_t)crc);
 101:boot.c        ****             uart_tx((uint8_t)((~crc)>>8));
 102:boot.c        ****             uart_tx((uint8_t)(~crc));
 103:boot.c        ****         }
 104:boot.c        ****         //}}}
 105:boot.c        ****         //Flash clear routine{{{
 106:boot.c        ****         else if(opt==F_CL){
 107:boot.c        ****             for(j=MAXPAGE;j>0;j--){
 108:boot.c        ****                 boot_page_erase((uint16_t)((MAXPAGE-j)<<7));
 109:boot.c        ****                 boot_spm_busy_wait();
 110:boot.c        ****             }
 111:boot.c        ****                 uart_tx(ACK);
 112:boot.c        ****         }
 113:boot.c        ****         //}}}
 114:boot.c        ****         //EEPROM write routine{{{
 115:boot.c        ****         else if(opt==E_WR){
 116:boot.c        ****             if(receive_block(Buffer, BUFFSIZE)){
 117:boot.c        ****                 eeprom_update_block(Buffer+1, (void*)PAGWD, SPM_PAGESIZE);
 118:boot.c        ****                 eeprom_busy_wait();
 119:boot.c        ****                 uart_tx(ACK);
 120:boot.c        ****             }
 121:boot.c        ****         }
 122:boot.c        ****         //}}}
 123:boot.c        ****         //EEPROM clear routine{{{
 124:boot.c        ****         else if(opt==E_CL){
 125:boot.c        ****             for(k=(E2END+1);k>0;k--){
 126:boot.c        ****                  eeprom_update_byte((uint8_t*)(E2END+1-k),0xFF);
 127:boot.c        ****                  eeprom_busy_wait();
 128:boot.c        ****             }
 129:boot.c        ****             uart_tx(ACK);
 130:boot.c        ****         }
 131:boot.c        ****         //}}}
 132:boot.c        ****         //Write to flash memory, data changes{{{
 133:boot.c        ****         else if(opt==X_CH){
 134:boot.c        ****             boot_rww_enable();
 135:boot.c        ****             uart_tx(ACK);
 136:boot.c        ****         }
 137:boot.c        ****         //}}}
 138:boot.c        ****         //Quit bootloader{{{
 139:boot.c        ****         else if(opt==Q_BL){
 140:boot.c        ****             uart_tx(ACK);
 141:boot.c        ****             Tcounter = 0;
 142:boot.c        ****         }
 143:boot.c        ****         //}}}
 144:boot.c        ****         //Other cases (default){{{
 145:boot.c        ****         else{
 146:boot.c        ****             uart_tx(NACK);
 147:boot.c        ****         }
 148:boot.c        ****         //}}}
 149:boot.c        ****     }
 150:boot.c        ****     UART_DIS(); //UART Disable
 151:boot.c        ****     runapp(); //jump to application
 152:boot.c        ****     for(;;); //infinite for loop
 153:boot.c        **** }
 154:boot.c        **** //}}}
 155:boot.c        **** 
 156:boot.c        **** //__jmain: device stack initialization{{{
GAS LISTING /tmp/ccQVnsSl.s 			page 4


 157:boot.c        **** void __jmain(void){
  16               		.loc 1 157 0
  17               		.cfi_startproc
  18               	/* prologue: naked */
  19               	/* frame size = 0 */
  20               	/* stack size = 0 */
  21               	.L__stack_usage = 0
 158:boot.c        ****     asm volatile ("clr __zero_reg__");
  22               		.loc 1 158 0
  23               	/* #APP */
  24               	 ;  158 "boot.c" 1
  25 0000 1124      		clr __zero_reg__
  26               	 ;  0 "" 2
 159:boot.c        ****     asm volatile ("out %0,__zero_reg__" :: "i" (AVR_STATUS_ADDR));
  27               		.loc 1 159 0
  28               	 ;  159 "boot.c" 1
  29 0002 1FBE      		out 63,__zero_reg__
  30               	 ;  0 "" 2
 160:boot.c        ****     asm volatile ("ldi r28,lo8(%0)" :: "i" (RAMEND));
  31               		.loc 1 160 0
  32               	 ;  160 "boot.c" 1
  33 0004 CFEF      		ldi r28,lo8(2303)
  34               	 ;  0 "" 2
 161:boot.c        ****     asm volatile ("ldi r29,hi8(%0)" :: "i" (RAMEND));
  35               		.loc 1 161 0
  36               	 ;  161 "boot.c" 1
  37 0006 D8E0      		ldi r29,hi8(2303)
  38               	 ;  0 "" 2
 162:boot.c        ****     asm volatile ("out %0,r29" :: "i" (AVR_STACK_POINTER_HI_ADDR));
  39               		.loc 1 162 0
  40               	 ;  162 "boot.c" 1
  41 0008 DEBF      		out 62,r29
  42               	 ;  0 "" 2
 163:boot.c        ****     asm volatile ("out %0,r28" :: "i" (AVR_STACK_POINTER_LO_ADDR));
  43               		.loc 1 163 0
  44               	 ;  163 "boot.c" 1
  45 000a CDBF      		out 61,r28
  46               	 ;  0 "" 2
 164:boot.c        ****     asm volatile ("rjmp main");
  47               		.loc 1 164 0
  48               	 ;  164 "boot.c" 1
  49 000c 00C0      		rjmp main
  50               	 ;  0 "" 2
  51               	/* epilogue start */
 165:boot.c        **** }
  52               		.loc 1 165 0
  53               	/* #NOAPP */
  54               		.cfi_endproc
  55               	.LFE2:
  56               		.size	__jmain, .-__jmain
  57               		.section	.text.uart_tx,"ax",@progbits
  58               	.global	uart_tx
  59               		.type	uart_tx, @function
  60               	uart_tx:
  61               	.LFB3:
 166:boot.c        **** //}}}
 167:boot.c        **** 
GAS LISTING /tmp/ccQVnsSl.s 			page 5


 168:boot.c        **** //uart_tx: data transmission{{{
 169:boot.c        **** void uart_tx(uint8_t data){
  62               		.loc 1 169 0
  63               		.cfi_startproc
  64               	/* prologue: function */
  65               	/* frame size = 0 */
  66               	/* stack size = 0 */
  67               	.L__stack_usage = 0
  68               	.LVL0:
  69               	.L3:
 170:boot.c        ****     while(!FREE_TX());
  70               		.loc 1 170 0 discriminator 1
  71 0000 9091 C000 		lds r25,192
  72 0004 95FF      		sbrs r25,5
  73 0006 00C0      		rjmp .L3
 171:boot.c        ****     UDR = data;
  74               		.loc 1 171 0
  75 0008 8093 C600 		sts 198,r24
  76 000c 0895      		ret
  77               		.cfi_endproc
  78               	.LFE3:
  79               		.size	uart_tx, .-uart_tx
  80               		.section	.text.flash_buff_load,"ax",@progbits
  81               	.global	flash_buff_load
  82               		.type	flash_buff_load, @function
  83               	flash_buff_load:
  84               	.LFB5:
 172:boot.c        **** }
 173:boot.c        **** //}}}
 174:boot.c        **** 
 175:boot.c        **** //uart_rx: data reception{{{
 176:boot.c        **** inline uint8_t uart_rx(void){
 177:boot.c        ****     while(!DATA_RX());
 178:boot.c        ****     return UDR;
 179:boot.c        **** }
 180:boot.c        **** //}}}
 181:boot.c        **** 
 182:boot.c        **** //flash_buff_load: load the buffer with data from flash memory{{{
 183:boot.c        **** void flash_buff_load(uint8_t *buff, uint8_t PagNm){
  85               		.loc 1 183 0
  86               		.cfi_startproc
  87               	.LVL1:
  88               	/* prologue: function */
  89               	/* frame size = 0 */
  90               	/* stack size = 0 */
  91               	.L__stack_usage = 0
  92               	.LBB10:
 184:boot.c        **** #if (SPM_PAGESIZE > 255)
 185:boot.c        ****     uint16_t i;
 186:boot.c        **** #else
 187:boot.c        ****     uint8_t i;
 188:boot.c        **** #endif
 189:boot.c        **** 
 190:boot.c        ****     for(i=SPM_PAGESIZE;i>0;i--)
 191:boot.c        ****             *(buff+SPM_PAGESIZE-i)=pgm_read_byte((uint16_t) \
  93               		.loc 1 191 0
  94 0000 20E8      		ldi r18,lo8(-128)
GAS LISTING /tmp/ccQVnsSl.s 			page 6


  95 0002 629F      		mul r22,r18
  96 0004 B001      		movw r22,r0
  97 0006 1124      		clr __zero_reg__
  98               	.LVL2:
  99 0008 9C01      		movw r18,r24
 100 000a 2058      		subi r18,-128
 101 000c 3F4F      		sbci r19,-1
 102 000e DC01      		movw r26,r24
 103 0010 681B      		sub r22,r24
 104 0012 790B      		sbc r23,r25
 105               	.LVL3:
 106               	.L8:
 107 0014 FB01      		movw r30,r22
 108 0016 EA0F      		add r30,r26
 109 0018 FB1F      		adc r31,r27
 110               		.loc 1 191 0 is_stmt 0 discriminator 3
 111               	/* #APP */
 112               	 ;  191 "boot.c" 1
 113 001a E491      		lpm r30, Z
 114               		
 115               	 ;  0 "" 2
 116               	.LVL4:
 117               	/* #NOAPP */
 118               	.LBE10:
 119 001c ED93      		st X+,r30
 120               	.LVL5:
 190:boot.c        ****             *(buff+SPM_PAGESIZE-i)=pgm_read_byte((uint16_t) \
 121               		.loc 1 190 0 is_stmt 1 discriminator 3
 122 001e A217      		cp r26,r18
 123 0020 B307      		cpc r27,r19
 124 0022 01F4      		brne .L8
 125               	/* epilogue start */
 192:boot.c        ****                     (PagNm<<SPM_LOG2)+SPM_PAGESIZE-i);
 193:boot.c        **** }
 126               		.loc 1 193 0
 127 0024 0895      		ret
 128               		.cfi_endproc
 129               	.LFE5:
 130               		.size	flash_buff_load, .-flash_buff_load
 131               		.section	.text.receive_block,"ax",@progbits
 132               	.global	receive_block
 133               		.type	receive_block, @function
 134               	receive_block:
 135               	.LFB7:
 194:boot.c        **** //}}}
 195:boot.c        **** 
 196:boot.c        **** //send_block: transmit a block of data{{{
 197:boot.c        **** #if (BUFFSIZE > 255)
 198:boot.c        **** inline void send_block(uint8_t *buff, uint16_t size){
 199:boot.c        ****     uint16_t i;
 200:boot.c        **** #else
 201:boot.c        **** inline void send_block(uint8_t *buff, uint8_t size){
 202:boot.c        ****     uint8_t i;
 203:boot.c        **** #endif
 204:boot.c        **** 
 205:boot.c        ****     for(i=size;i>0;i--){
 206:boot.c        ****         uart_tx(*(buff+size-i));
GAS LISTING /tmp/ccQVnsSl.s 			page 7


 207:boot.c        ****     }
 208:boot.c        **** }
 209:boot.c        **** //}}}
 210:boot.c        **** 
 211:boot.c        **** //receive_block: receice a block of data{{{
 212:boot.c        **** #if (BUFFSIZE >255)
 213:boot.c        **** uint8_t receive_block(uint8_t *buff, uint16_t size){
 214:boot.c        **** #else
 215:boot.c        **** uint8_t receive_block(uint8_t *buff, uint8_t size){
 136               		.loc 1 215 0
 137               		.cfi_startproc
 138               	.LVL6:
 139 0000 0F93      		push r16
 140               	.LCFI0:
 141               		.cfi_def_cfa_offset 3
 142               		.cfi_offset 16, -2
 143 0002 1F93      		push r17
 144               	.LCFI1:
 145               		.cfi_def_cfa_offset 4
 146               		.cfi_offset 17, -3
 147 0004 CF93      		push r28
 148               	.LCFI2:
 149               		.cfi_def_cfa_offset 5
 150               		.cfi_offset 28, -4
 151 0006 DF93      		push r29
 152               	.LCFI3:
 153               		.cfi_def_cfa_offset 6
 154               		.cfi_offset 29, -5
 155               	/* prologue: function */
 156               	/* frame size = 0 */
 157               	/* stack size = 4 */
 158               	.L__stack_usage = 4
 159 0008 8C01      		movw r16,r24
 216:boot.c        **** #endif
 217:boot.c        ****     uint16_t i;
 218:boot.c        **** 
 219:boot.c        ****     for(i=size;i>0;i--)
 160               		.loc 1 219 0
 161 000a C62F      		mov r28,r22
 162 000c D0E0      		ldi r29,0
 163               	.LVL7:
 164 000e FC01      		movw r30,r24
 165 0010 CE01      		movw r24,r28
 166               	.LVL8:
 167               	.L11:
 168               		.loc 1 219 0 is_stmt 0 discriminator 1
 169 0012 0097      		sbiw r24,0
 170 0014 01F0      		breq .L17
 171               	.L15:
 172               	.LBB11:
 173               	.LBB12:
 177:boot.c        ****     return UDR;
 174               		.loc 1 177 0 is_stmt 1
 175 0016 2091 C000 		lds r18,192
 176 001a 27FF      		sbrs r18,7
 177 001c 00C0      		rjmp .L15
 178:boot.c        **** }
GAS LISTING /tmp/ccQVnsSl.s 			page 8


 178               		.loc 1 178 0
 179 001e 2091 C600 		lds r18,198
 180               	.LBE12:
 181               	.LBE11:
 220:boot.c        ****         *(buff+size-i)=uart_rx();
 182               		.loc 1 220 0
 183 0022 2193      		st Z+,r18
 219:boot.c        ****         *(buff+size-i)=uart_rx();
 184               		.loc 1 219 0
 185 0024 0197      		sbiw r24,1
 186               	.LVL9:
 187 0026 00C0      		rjmp .L11
 188               	.L17:
 221:boot.c        ****     i=crc16_calc(INITVAL, MASKBUFF, (size-CRCSIZE), buff);
 189               		.loc 1 221 0
 190 0028 AE01      		movw r20,r28
 191 002a 4250      		subi r20,2
 192 002c 5109      		sbc r21,__zero_reg__
 193 002e 9801      		movw r18,r16
 194 0030 6CEB      		ldi r22,lo8(-68)
 195 0032 76EA      		ldi r23,lo8(-90)
 196               	.LVL10:
 197 0034 8FEF      		ldi r24,lo8(-1)
 198 0036 9FEF      		ldi r25,lo8(-1)
 199               	.LVL11:
 200 0038 0E94 0000 		call crc16_calc
 201               	.LVL12:
 222:boot.c        ****     if(i==((*(buff+size-CRCSIZE)<<8) | *(buff+size-CRCSIZE+1)))
 202               		.loc 1 222 0
 203 003c C00F      		add r28,r16
 204 003e D11F      		adc r29,r17
 205               	.LVL13:
 206 0040 FE01      		movw r30,r28
 207 0042 3297      		sbiw r30,2
 208 0044 2081      		ld r18,Z
 209 0046 30E0      		ldi r19,0
 210 0048 322F      		mov r19,r18
 211 004a 2227      		clr r18
 212 004c 2197      		sbiw r28,1
 213 004e 4881      		ld r20,Y
 214 0050 242B      		or r18,r20
 215 0052 8217      		cp r24,r18
 216 0054 9307      		cpc r25,r19
 217 0056 01F0      		breq .L14
 223:boot.c        ****        return 1;
 224:boot.c        ****     uart_tx(NACK);
 218               		.loc 1 224 0
 219 0058 85E1      		ldi r24,lo8(21)
 220               	.LVL14:
 221 005a 0E94 0000 		call uart_tx
 222               	.LVL15:
 225:boot.c        ****     return 0;
 223               		.loc 1 225 0
 224 005e 80E0      		ldi r24,0
 225 0060 00C0      		rjmp .L13
 226               	.LVL16:
 227               	.L14:
GAS LISTING /tmp/ccQVnsSl.s 			page 9


 223:boot.c        ****        return 1;
 228               		.loc 1 223 0
 229 0062 81E0      		ldi r24,lo8(1)
 230               	.LVL17:
 231               	.L13:
 232               	/* epilogue start */
 226:boot.c        **** }
 233               		.loc 1 226 0
 234 0064 DF91      		pop r29
 235 0066 CF91      		pop r28
 236 0068 1F91      		pop r17
 237 006a 0F91      		pop r16
 238               	.LVL18:
 239 006c 0895      		ret
 240               		.cfi_endproc
 241               	.LFE7:
 242               		.size	receive_block, .-receive_block
 243               		.section	.text.startup.main,"ax",@progbits
 244               	.global	main
 245               		.type	main, @function
 246               	main:
 247               	.LFB1:
   4:boot.c        **** //Variable definition{{{
 248               		.loc 1 4 0
 249               		.cfi_startproc
 250 0000 CDB7      		in r28,__SP_L__
 251 0002 DEB7      		in r29,__SP_H__
 252               	.LCFI4:
 253               		.cfi_def_cfa_register 28
 254 0004 C558      		subi r28,-123
 255 0006 D109      		sbc r29,__zero_reg__
 256               	.LCFI5:
 257               		.cfi_def_cfa_offset 135
 258 0008 DEBF      		out __SP_H__,r29
 259 000a CDBF      		out __SP_L__,r28
 260               	/* prologue: function */
 261               	/* frame size = 133 */
 262               	/* stack size = 133 */
 263               	.L__stack_usage = 133
   6:boot.c        ****     uint8_t Tcounter = OVFLW;
 264               		.loc 1 6 0
 265 000c 8E01      		movw r16,r28
 266 000e 0F5F      		subi r16,-1
 267 0010 1F4F      		sbci r17,-1
 268 0012 83E8      		ldi r24,lo8(-125)
 269 0014 F801      		movw r30,r16
 270               		0:
 271 0016 1192      		st Z+,__zero_reg__
 272 0018 8A95      		dec r24
 273 001a 01F4      		brne 0b
 274 001c 8EE1      		ldi r24,lo8(30)
 275 001e 8983      		std Y+1,r24
 276 0020 85E9      		ldi r24,lo8(-107)
 277 0022 8A83      		std Y+2,r24
 278 0024 8FE0      		ldi r24,lo8(15)
 279 0026 8B83      		std Y+3,r24
 280               	.LVL19:
GAS LISTING /tmp/ccQVnsSl.s 			page 10


  10:boot.c        ****     uint16_t k;
 281               		.loc 1 10 0
 282 0028 CC57      		subi r28,lo8(-132)
 283 002a DF4F      		sbci r29,hi8(-132)
 284 002c 1982      		std Y+1,__zero_reg__
 285 002e 1882      		st Y,__zero_reg__
 286 0030 C458      		subi r28,lo8(132)
 287 0032 D040      		sbci r29,hi8(132)
  25:boot.c        ****     UBRRL = UBRRL_VALUE;
 288               		.loc 1 25 0
 289 0034 1092 C500 		sts 197,__zero_reg__
  26:boot.c        ****     UART_ENA();
 290               		.loc 1 26 0
 291 0038 89E1      		ldi r24,lo8(25)
 292 003a 8093 C400 		sts 196,r24
  27:boot.c        ****     send_block(Buffer, 3); //Send signature bytes
 293               		.loc 1 27 0
 294 003e 8091 C100 		lds r24,193
 295 0042 8861      		ori r24,lo8(24)
 296 0044 8093 C100 		sts 193,r24
 297               	.LVL20:
 298               	.LBB13:
 299               	.LBB14:
 206:boot.c        ****     }
 300               		.loc 1 206 0
 301 0048 8981      		ldd r24,Y+1
 302 004a 0E94 0000 		call uart_tx
 303               	.LVL21:
 304 004e 8A81      		ldd r24,Y+2
 305 0050 0E94 0000 		call uart_tx
 306               	.LVL22:
 307 0054 8B81      		ldd r24,Y+3
 308 0056 0E94 0000 		call uart_tx
 309               	.LVL23:
 310               	.LBE14:
 311               	.LBE13:
  32:boot.c        **** //}}}
 312               		.loc 1 32 0
 313 005a 85B5      		in r24,0x25
 314 005c 8560      		ori r24,lo8(5)
 315 005e 85BD      		out 0x25,r24
   7:boot.c        ****     uint8_t opt;
 316               		.loc 1 7 0
 317 0060 AEE1      		ldi r26,lo8(30)
 318 0062 EA2E      		mov r14,r26
 319               	.LVL24:
 320               	.L22:
  37:boot.c        ****             TFLAGRST();
 321               		.loc 1 37 0
 322 0064 A89B      		sbis 0x15,0
 323 0066 00C0      		rjmp .L19
  38:boot.c        ****             Tcounter--;
 324               		.loc 1 38 0
 325 0068 A89A      		sbi 0x15,0
  39:boot.c        ****         }
 326               		.loc 1 39 0
 327 006a EA94      		dec r14
GAS LISTING /tmp/ccQVnsSl.s 			page 11


 328               	.LVL25:
 329               	.L19:
  41:boot.c        ****             break;
 330               		.loc 1 41 0
 331 006c 8091 C000 		lds r24,192
 332 0070 87FF      		sbrs r24,7
 333 0072 00C0      		rjmp .L20
  41:boot.c        ****             break;
 334               		.loc 1 41 0 is_stmt 0 discriminator 1
 335 0074 8091 C600 		lds r24,198
 336 0078 8630      		cpi r24,lo8(6)
 337 007a 01F0      		breq .L21
 338               	.L20:
  36:boot.c        ****         if(TIM_OVR()){
 339               		.loc 1 36 0 is_stmt 1
 340 007c E110      		cpse r14,__zero_reg__
 341 007e 00C0      		rjmp .L22
 342               	.L21:
  45:boot.c        ****     TFLAGRST(); //Timer flag reset (to default state)
 343               		.loc 1 45 0
 344 0080 85B5      		in r24,0x25
 345 0082 8A7F      		andi r24,lo8(-6)
 346 0084 85BD      		out 0x25,r24
  46:boot.c        **** //}}}
 347               		.loc 1 46 0
 348 0086 A89A      		sbi 0x15,0
 134:boot.c        ****             uart_tx(ACK);
 349               		.loc 1 134 0
 350 0088 71E1      		ldi r23,lo8(17)
 351 008a A72E      		mov r10,r23
 108:boot.c        ****                 boot_spm_busy_wait();
 352               		.loc 1 108 0
 353 008c E3E0      		ldi r30,lo8(3)
 354 008e BE2E      		mov r11,r30
  74:boot.c        ****                             ((Buffer[SPM_PAGESIZE-i+2]<<8) | \
 355               		.loc 1 74 0
 356 0090 7724      		clr r7
 357 0092 7394      		inc r7
 358 0094 F2E8      		ldi r31,lo8(-126)
 359 0096 6F2E      		mov r6,r31
 360 0098 600E      		add r6,r16
 361               	.L23:
  49:boot.c        ****         opt=uart_rx();
 362               		.loc 1 49 0
 363 009a EE20      		tst r14
 364 009c 01F4      		brne .+2
 365 009e 00C0      		rjmp .L83
 366               	.L64:
 367               	.LBB15:
 368               	.LBB16:
 177:boot.c        ****     return UDR;
 369               		.loc 1 177 0
 370 00a0 8091 C000 		lds r24,192
 371 00a4 87FF      		sbrs r24,7
 372 00a6 00C0      		rjmp .L64
 178:boot.c        **** }
 373               		.loc 1 178 0
GAS LISTING /tmp/ccQVnsSl.s 			page 12


 374 00a8 F090 C600 		lds r15,198
 375               	.LBE16:
 376               	.LBE15:
  52:boot.c        ****             if(receive_block(Buffer, SHORTBUFS)){
 377               		.loc 1 52 0
 378 00ac 8F2D      		mov r24,r15
 379 00ae 8F7D      		andi r24,lo8(-33)
 380 00b0 8235      		cpi r24,lo8(82)
 381 00b2 01F4      		brne .L25
  53:boot.c        ****                 if(opt==F_RD)
 382               		.loc 1 53 0
 383 00b4 63E0      		ldi r22,lo8(3)
 384 00b6 C801      		movw r24,r16
 385 00b8 0E94 0000 		call receive_block
 386               	.LVL26:
 387 00bc 8823      		tst r24
 388 00be 01F0      		breq .L23
  54:boot.c        ****                     flash_buff_load(Buffer, PAGBT);
 389               		.loc 1 54 0
 390 00c0 F2E7      		ldi r31,lo8(114)
  55:boot.c        ****                 else{
 391               		.loc 1 55 0
 392 00c2 6981      		ldd r22,Y+1
  54:boot.c        ****                     flash_buff_load(Buffer, PAGBT);
 393               		.loc 1 54 0
 394 00c4 FF12      		cpse r15,r31
 395 00c6 00C0      		rjmp .L27
  55:boot.c        ****                 else{
 396               		.loc 1 55 0
 397 00c8 C801      		movw r24,r16
 398 00ca 0E94 0000 		call flash_buff_load
 399               	.LVL27:
 400 00ce 00C0      		rjmp .L28
 401               	.L27:
  57:boot.c        ****                              SPM_PAGESIZE);
 402               		.loc 1 57 0
 403 00d0 80E8      		ldi r24,lo8(-128)
 404 00d2 689F      		mul r22,r24
 405 00d4 B001      		movw r22,r0
 406 00d6 1124      		clr __zero_reg__
 407 00d8 40E8      		ldi r20,lo8(-128)
 408 00da 50E0      		ldi r21,0
 409 00dc C801      		movw r24,r16
 410 00de 0E94 0000 		call __eerd_block_m328p
 411               	.LVL28:
 412               	.L29:
  59:boot.c        ****                 }
 413               		.loc 1 59 0 discriminator 1
 414 00e2 F999      		sbic 0x1f,1
 415 00e4 00C0      		rjmp .L29
 416               	.L28:
  61:boot.c        ****                 Buffer[SPM_PAGESIZE]=((uint8_t)(crc>>8));
 417               		.loc 1 61 0
 418 00e6 9801      		movw r18,r16
 419 00e8 40E8      		ldi r20,lo8(-128)
 420 00ea 50E0      		ldi r21,0
 421 00ec 6CEB      		ldi r22,lo8(-68)
GAS LISTING /tmp/ccQVnsSl.s 			page 13


 422 00ee 76EA      		ldi r23,lo8(-90)
 423 00f0 8FEF      		ldi r24,lo8(-1)
 424 00f2 9FEF      		ldi r25,lo8(-1)
 425 00f4 0E94 0000 		call crc16_calc
 426               	.LVL29:
  62:boot.c        ****                 Buffer[SPM_PAGESIZE+1]=((uint8_t)crc);
 427               		.loc 1 62 0
 428 00f8 CF57      		subi r28,lo8(-129)
 429 00fa DF4F      		sbci r29,hi8(-129)
 430 00fc 9883      		st Y,r25
 431 00fe C158      		subi r28,lo8(129)
 432 0100 D040      		sbci r29,hi8(129)
  63:boot.c        ****                 send_block(Buffer, (BUFFSIZE-PAGSIZE));
 433               		.loc 1 63 0
 434 0102 CE57      		subi r28,lo8(-130)
 435 0104 DF4F      		sbci r29,hi8(-130)
 436 0106 8883      		st Y,r24
 437 0108 C258      		subi r28,lo8(130)
 438 010a D040      		sbci r29,hi8(130)
 439               	.LVL30:
 440 010c 6801      		movw r12,r16
 441               	.LVL31:
 442               	.L30:
 443               	.LBB17:
 444               	.LBB18:
 206:boot.c        ****     }
 445               		.loc 1 206 0
 446 010e F601      		movw r30,r12
 447 0110 8191      		ld r24,Z+
 448 0112 6F01      		movw r12,r30
 449 0114 0E94 0000 		call uart_tx
 450               	.LVL32:
 205:boot.c        ****         uart_tx(*(buff+size-i));
 451               		.loc 1 205 0
 452 0118 6C10      		cpse r6,r12
 453 011a 00C0      		rjmp .L30
 454 011c 00C0      		rjmp .L23
 455               	.LVL33:
 456               	.L25:
 457               	.LBE18:
 458               	.LBE17:
  69:boot.c        ****             if(receive_block(Buffer, BUFFSIZE)){
 459               		.loc 1 69 0
 460 011e F7E7      		ldi r31,lo8(119)
 461 0120 FF12      		cpse r15,r31
 462 0122 00C0      		rjmp .L31
  70:boot.c        ****                 boot_page_erase(PAGWD);
 463               		.loc 1 70 0
 464 0124 63E8      		ldi r22,lo8(-125)
 465 0126 C801      		movw r24,r16
 466 0128 0E94 0000 		call receive_block
 467               	.LVL34:
 468 012c 8823      		tst r24
 469 012e 01F4      		brne .+2
 470 0130 00C0      		rjmp .L23
  71:boot.c        ****                 boot_spm_busy_wait();
 471               		.loc 1 71 0
GAS LISTING /tmp/ccQVnsSl.s 			page 14


 472 0132 2981      		ldd r18,Y+1
 473 0134 80E8      		ldi r24,lo8(-128)
 474 0136 289F      		mul r18,r24
 475 0138 9001      		movw r18,r0
 476 013a 1124      		clr __zero_reg__
 477 013c F901      		movw r30,r18
 478               	/* #APP */
 479               	 ;  71 "boot.c" 1
 480 013e B092 5700 		sts 87, r11
 481 0142 E895      		spm
 482               		
 483               	 ;  0 "" 2
 484               	/* #NOAPP */
 485               	.L32:
  72:boot.c        ****                 for(i=SPM_PAGESIZE;i>0;i-=2)
 486               		.loc 1 72 0 discriminator 1
 487 0144 07B6      		in __tmp_reg__,0x37
 488 0146 00FC      		sbrc __tmp_reg__,0
 489 0148 00C0      		rjmp .L32
 490 014a E0E0      		ldi r30,0
 491 014c F0E0      		ldi r31,0
 492               	.L33:
 493               	.LVL35:
 494 014e D801      		movw r26,r16
 495 0150 AE0F      		add r26,r30
 496 0152 BF1F      		adc r27,r31
  74:boot.c        ****                             ((Buffer[SPM_PAGESIZE-i+2]<<8) | \
 497               		.loc 1 74 0 discriminator 3
 498 0154 1296      		adiw r26,2
 499 0156 8C91      		ld r24,X
 500 0158 1297      		sbiw r26,2
 501 015a 90E0      		ldi r25,0
 502 015c 982F      		mov r25,r24
 503 015e 8827      		clr r24
 504 0160 1196      		adiw r26,1
 505 0162 4C91      		ld r20,X
 506 0164 842B      		or r24,r20
 507               	/* #APP */
 508               	 ;  74 "boot.c" 1
 509 0166 0C01      		movw  r0, r24
 510 0168 7092 5700 		sts 87, r7
 511 016c E895      		spm
 512 016e 1124      		clr  r1
 513               		
 514               	 ;  0 "" 2
 515               	.LVL36:
 516               	/* #NOAPP */
 517 0170 3296      		adiw r30,2
 518               	.LVL37:
  73:boot.c        ****                     boot_page_fill(SPM_PAGESIZE-i, \
 519               		.loc 1 73 0 discriminator 3
 520 0172 E038      		cpi r30,-128
 521 0174 F105      		cpc r31,__zero_reg__
 522 0176 01F4      		brne .L33
  77:boot.c        ****                 boot_spm_busy_wait();
 523               		.loc 1 77 0
 524 0178 85E0      		ldi r24,lo8(5)
GAS LISTING /tmp/ccQVnsSl.s 			page 15


 525 017a F901      		movw r30,r18
 526               	.LVL38:
 527               	/* #APP */
 528               	 ;  77 "boot.c" 1
 529 017c 8093 5700 		sts 87, r24
 530 0180 E895      		spm
 531               		
 532               	 ;  0 "" 2
 533               	/* #NOAPP */
 534               	.L34:
  78:boot.c        ****                 uart_tx(ACK);
 535               		.loc 1 78 0 discriminator 1
 536 0182 07B6      		in __tmp_reg__,0x37
 537 0184 00FC      		sbrc __tmp_reg__,0
 538 0186 00C0      		rjmp .L34
 539 0188 00C0      		rjmp .L85
 540               	.L31:
  84:boot.c        ****             crc=INITVAL;
 541               		.loc 1 84 0 discriminator 1
 542 018a 8635      		cpi r24,lo8(86)
 543 018c 01F0      		breq .+2
 544 018e 00C0      		rjmp .L35
 545               	.LVL39:
  86:boot.c        ****                 i = PAGBT;
 546               		.loc 1 86 0
 547 0190 63E0      		ldi r22,lo8(3)
 548 0192 C801      		movw r24,r16
 549 0194 0E94 0000 		call receive_block
 550               	.LVL40:
 551 0198 8823      		tst r24
 552 019a 01F0      		breq .L53
  87:boot.c        ****                 for(j=i;j>0;j--){
 553               		.loc 1 87 0
 554 019c 4980      		ldd r4,Y+1
 555               	.LVL41:
  88:boot.c        ****                     if(opt==F_VR)
 556               		.loc 1 88 0
 557 019e 512C      		mov r5,__zero_reg__
  85:boot.c        ****             if(receive_block(Buffer, SHORTBUFS)){//##
 558               		.loc 1 85 0
 559 01a0 CC24      		clr r12
 560 01a2 CA94      		dec r12
 561 01a4 DC2C      		mov r13,r12
  93:boot.c        ****                          eeprom_busy_wait();
 562               		.loc 1 93 0
 563 01a6 842C      		mov r8,r4
 564 01a8 912C      		mov r9,__zero_reg__
 565               	.LVL42:
 566               	.L37:
 567 01aa 842D      		mov r24,r4
 568 01ac 8519      		sub r24,r5
 569               	.LVL43:
  88:boot.c        ****                     if(opt==F_VR)
 570               		.loc 1 88 0 discriminator 1
 571 01ae 5414      		cp r5,r4
 572 01b0 01F0      		breq .L36
  89:boot.c        ****                         flash_buff_load(Buffer, i-j);
GAS LISTING /tmp/ccQVnsSl.s 			page 16


 573               		.loc 1 89 0
 574 01b2 F6E7      		ldi r31,lo8(118)
 575 01b4 FF12      		cpse r15,r31
 576 01b6 00C0      		rjmp .L38
  90:boot.c        ****                     else{
 577               		.loc 1 90 0
 578 01b8 652D      		mov r22,r5
 579 01ba C801      		movw r24,r16
 580               	.LVL44:
 581 01bc 0E94 0000 		call flash_buff_load
 582               	.LVL45:
 583 01c0 00C0      		rjmp .L39
 584               	.LVL46:
 585               	.L38:
  93:boot.c        ****                          eeprom_busy_wait();
 586               		.loc 1 93 0
 587 01c2 B401      		movw r22,r8
 588 01c4 681B      		sub r22,r24
 589 01c6 7109      		sbc r23,__zero_reg__
 590 01c8 7695      		lsr r23
 591 01ca 762F      		mov r23,r22
 592 01cc 6627      		clr r22
 593 01ce 7795      		ror r23
 594 01d0 6795      		ror r22
  92:boot.c        ****                                  (const void*)((i-j)<<SPM_LOG2), SPM_PAGESIZE);
 595               		.loc 1 92 0
 596 01d2 40E8      		ldi r20,lo8(-128)
 597 01d4 50E0      		ldi r21,0
 598 01d6 C801      		movw r24,r16
 599               	.LVL47:
 600 01d8 0E94 0000 		call __eerd_block_m328p
 601               	.LVL48:
 602               	.L40:
  94:boot.c        ****                     }
 603               		.loc 1 94 0 discriminator 1
 604 01dc F999      		sbic 0x1f,1
 605 01de 00C0      		rjmp .L40
 606               	.L39:
  96:boot.c        ****                 }
 607               		.loc 1 96 0 discriminator 2
 608 01e0 9801      		movw r18,r16
 609 01e2 40E8      		ldi r20,lo8(-128)
 610 01e4 50E0      		ldi r21,0
 611 01e6 65E4      		ldi r22,lo8(69)
 612 01e8 77ED      		ldi r23,lo8(-41)
 613 01ea C601      		movw r24,r12
 614 01ec 0E94 0000 		call crc16_calc
 615               	.LVL49:
 616 01f0 6C01      		movw r12,r24
 617               	.LVL50:
 618 01f2 5394      		inc r5
 619               	.LVL51:
 620 01f4 00C0      		rjmp .L37
 621               	.LVL52:
 622               	.L53:
  85:boot.c        ****             if(receive_block(Buffer, SHORTBUFS)){//##
 623               		.loc 1 85 0
GAS LISTING /tmp/ccQVnsSl.s 			page 17


 624 01f6 CC24      		clr r12
 625 01f8 CA94      		dec r12
 626 01fa DC2C      		mov r13,r12
 627               	.LVL53:
 628               	.L36:
  99:boot.c        ****             uart_tx((uint8_t)crc);
 629               		.loc 1 99 0
 630 01fc 8D2D      		mov r24,r13
 631 01fe 0E94 0000 		call uart_tx
 632               	.LVL54:
 100:boot.c        ****             uart_tx((uint8_t)((~crc)>>8));
 633               		.loc 1 100 0
 634 0202 8C2D      		mov r24,r12
 635 0204 0E94 0000 		call uart_tx
 636               	.LVL55:
 101:boot.c        ****             uart_tx((uint8_t)(~crc));
 637               		.loc 1 101 0
 638 0208 C601      		movw r24,r12
 639 020a 8095      		com r24
 640 020c 9095      		com r25
 641 020e 892F      		mov r24,r25
 642 0210 0E94 0000 		call uart_tx
 643               	.LVL56:
 102:boot.c        ****         }
 644               		.loc 1 102 0
 645 0214 8C2D      		mov r24,r12
 646 0216 8095      		com r24
 647 0218 00C0      		rjmp .L84
 648               	.LVL57:
 649               	.L35:
 106:boot.c        ****             for(j=MAXPAGE;j>0;j--){
 650               		.loc 1 106 0
 651 021a 83E6      		ldi r24,lo8(99)
 652 021c F812      		cpse r15,r24
 653 021e 00C0      		rjmp .L42
 654 0220 80E0      		ldi r24,0
 655 0222 90E0      		ldi r25,0
 656               	.L44:
 657               	.LVL58:
 108:boot.c        ****                 boot_spm_busy_wait();
 658               		.loc 1 108 0
 659 0224 FC01      		movw r30,r24
 660 0226 F695      		lsr r31
 661 0228 FE2F      		mov r31,r30
 662 022a EE27      		clr r30
 663 022c F795      		ror r31
 664 022e E795      		ror r30
 665               	/* #APP */
 666               	 ;  108 "boot.c" 1
 667 0230 B092 5700 		sts 87, r11
 668 0234 E895      		spm
 669               		
 670               	 ;  0 "" 2
 671               	/* #NOAPP */
 672               	.L43:
 109:boot.c        ****             }
 673               		.loc 1 109 0 discriminator 1
GAS LISTING /tmp/ccQVnsSl.s 			page 18


 674 0236 07B6      		in __tmp_reg__,0x37
 675 0238 00FC      		sbrc __tmp_reg__,0
 676 023a 00C0      		rjmp .L43
 677               	.LVL59:
 678 023c 0196      		adiw r24,1
 679               	.LVL60:
 107:boot.c        ****                 boot_page_erase((uint16_t)((MAXPAGE-j)<<7));
 680               		.loc 1 107 0 discriminator 2
 681 023e 883F      		cpi r24,-8
 682 0240 9105      		cpc r25,__zero_reg__
 683 0242 01F4      		brne .L44
 684 0244 00C0      		rjmp .L85
 685               	.LVL61:
 686               	.L42:
 115:boot.c        ****             if(receive_block(Buffer, BUFFSIZE)){
 687               		.loc 1 115 0
 688 0246 97E5      		ldi r25,lo8(87)
 689 0248 F912      		cpse r15,r25
 690 024a 00C0      		rjmp .L45
 116:boot.c        ****                 eeprom_update_block(Buffer+1, (void*)PAGWD, SPM_PAGESIZE);
 691               		.loc 1 116 0
 692 024c 63E8      		ldi r22,lo8(-125)
 693 024e C801      		movw r24,r16
 694 0250 0E94 0000 		call receive_block
 695               	.LVL62:
 696 0254 8823      		tst r24
 697 0256 01F4      		brne .+2
 698 0258 00C0      		rjmp .L23
 117:boot.c        ****                 eeprom_busy_wait();
 699               		.loc 1 117 0
 700 025a 6981      		ldd r22,Y+1
 701 025c E0E8      		ldi r30,lo8(-128)
 702 025e 6E9F      		mul r22,r30
 703 0260 B001      		movw r22,r0
 704 0262 1124      		clr __zero_reg__
 705 0264 40E8      		ldi r20,lo8(-128)
 706 0266 50E0      		ldi r21,0
 707 0268 CE01      		movw r24,r28
 708 026a 0296      		adiw r24,2
 709 026c 0E94 0000 		call __eeupd_block_m328p
 710               	.LVL63:
 711               	.L46:
 118:boot.c        ****                 uart_tx(ACK);
 712               		.loc 1 118 0 discriminator 1
 713 0270 F999      		sbic 0x1f,1
 714 0272 00C0      		rjmp .L46
 715 0274 00C0      		rjmp .L85
 716               	.L45:
 124:boot.c        ****             for(k=(E2END+1);k>0;k--){
 717               		.loc 1 124 0
 718 0276 F3E4      		ldi r31,lo8(67)
 719 0278 FF12      		cpse r15,r31
 720 027a 00C0      		rjmp .L47
 721 027c C12C      		mov r12,__zero_reg__
 722 027e D12C      		mov r13,__zero_reg__
 723               	.L49:
 724               	.LVL64:
GAS LISTING /tmp/ccQVnsSl.s 			page 19


 126:boot.c        ****                  eeprom_busy_wait();
 725               		.loc 1 126 0
 726 0280 6FEF      		ldi r22,lo8(-1)
 727 0282 C601      		movw r24,r12
 728 0284 0E94 0000 		call __eeupd_byte_m328p
 729               	.LVL65:
 730               	.L48:
 127:boot.c        ****             }
 731               		.loc 1 127 0 discriminator 1
 732 0288 F999      		sbic 0x1f,1
 733 028a 00C0      		rjmp .L48
 734               	.LVL66:
 735 028c 8FEF      		ldi r24,-1
 736 028e C81A      		sub r12,r24
 737 0290 D80A      		sbc r13,r24
 738               	.LVL67:
 125:boot.c        ****                  eeprom_update_byte((uint8_t*)(E2END+1-k),0xFF);
 739               		.loc 1 125 0 discriminator 2
 740 0292 C114      		cp r12,__zero_reg__
 741 0294 94E0      		ldi r25,4
 742 0296 D906      		cpc r13,r25
 743 0298 01F4      		brne .L49
 744 029a 00C0      		rjmp .L85
 745               	.LVL68:
 746               	.L47:
 133:boot.c        ****             boot_rww_enable();
 747               		.loc 1 133 0
 748 029c E8E5      		ldi r30,lo8(88)
 749 029e FE12      		cpse r15,r30
 750 02a0 00C0      		rjmp .L50
 134:boot.c        ****             uart_tx(ACK);
 751               		.loc 1 134 0
 752               	/* #APP */
 753               	 ;  134 "boot.c" 1
 754 02a2 A092 5700 		sts 87, r10
 755 02a6 E895      		spm
 756               		
 757               	 ;  0 "" 2
 758               	/* #NOAPP */
 759               	.L85:
 135:boot.c        ****         }
 760               		.loc 1 135 0
 761 02a8 86E0      		ldi r24,lo8(6)
 762 02aa 00C0      		rjmp .L84
 763               	.L50:
 139:boot.c        ****             uart_tx(ACK);
 764               		.loc 1 139 0
 765 02ac F1E5      		ldi r31,lo8(81)
 766 02ae FF12      		cpse r15,r31
 767 02b0 00C0      		rjmp .L51
 140:boot.c        ****             Tcounter = 0;
 768               		.loc 1 140 0
 769 02b2 86E0      		ldi r24,lo8(6)
 770 02b4 0E94 0000 		call uart_tx
 771               	.LVL69:
 772 02b8 00C0      		rjmp .L83
 773               	.LVL70:
GAS LISTING /tmp/ccQVnsSl.s 			page 20


 774               	.L51:
 146:boot.c        ****         }
 775               		.loc 1 146 0
 776 02ba 85E1      		ldi r24,lo8(21)
 777               	.L84:
 778 02bc 0E94 0000 		call uart_tx
 779               	.LVL71:
 780 02c0 00C0      		rjmp .L23
 781               	.LVL72:
 782               	.L83:
 150:boot.c        ****     runapp(); //jump to application
 783               		.loc 1 150 0
 784 02c2 8091 C100 		lds r24,193
 785 02c6 877E      		andi r24,lo8(-25)
 786 02c8 8093 C100 		sts 193,r24
 151:boot.c        ****     for(;;); //infinite for loop
 787               		.loc 1 151 0
 788 02cc CC57      		subi r28,lo8(-132)
 789 02ce DF4F      		sbci r29,hi8(-132)
 790 02d0 E881      		ld r30,Y
 791 02d2 F981      		ldd r31,Y+1
 792 02d4 C458      		subi r28,lo8(132)
 793 02d6 D040      		sbci r29,hi8(132)
 794 02d8 0995      		icall
 795               	.LVL73:
 796               	.L52:
 152:boot.c        **** }
 797               		.loc 1 152 0 discriminator 1
 798 02da 00C0      		rjmp .L52
 799               		.cfi_endproc
 800               	.LFE1:
 801               		.size	main, .-main
 802               	.global	BootloaderVersion
 803               		.section	.progmem.data.BootloaderVersion,"a",@progbits
 804               		.type	BootloaderVersion, @object
 805               		.size	BootloaderVersion, 8
 806               	BootloaderVersion:
 807 0000 7631 2E31 		.string	"v1.1-a1"
 807      2D61 3100 
 808               		.text
 809               	.Letext0:
 810               		.file 2 "/usr/lib/gcc/avr/4.9.2/include/stdint-gcc.h"
 811               		.file 3 "/usr/lib/gcc/avr/4.9.2/include/stddef.h"
 812               		.file 4 "boot.h"
 813               		.file 5 "/usr/avr/include/avr/eeprom.h"
 814               		.file 6 "crc16.h"